; Function Attrs: inlinehint nounwind uwtable
define internal fastcc ptr @lean_nat_abs(ptr noundef %0) unnamed_addr #0 {
  %2 = ptrtoint ptr %0 to i64
  %3 = and i64 %2, 1
  %.not.i = icmp eq i64 %3, 0
  br i1 %.not.i, label %lean_int_lt.exit, label %4, !prof !4

4:                                                ; preds = %1
  %5 = and i64 %2, 4294967296
  %.not = icmp eq i64 %5, 0
  br i1 %.not, label %lean_int_to_nat.exit, label %7

lean_int_lt.exit:                                 ; preds = %1
  %6 = tail call zeroext i1 @lean_int_big_lt(ptr noundef %0, ptr noundef nonnull inttoptr (i64 1 to ptr)) #6
  br i1 %6, label %19, label %23

7:                                                ; preds = %4
  %8 = shl i64 %2, 31
  %9 = ashr i64 %8, 32
  %10 = sub nsw i64 0, %9
  %11 = add nsw i64 %9, 2147483647
  %12 = icmp ult i64 %11, 4294967296
  br i1 %12, label %13, label %17, !prof !5

13:                                               ; preds = %7
  %14 = shl nuw nsw i64 %10, 1
  %15 = or disjoint i64 %14, 1
  %16 = inttoptr i64 %15 to ptr
  br label %lean_int_neg.exit

17:                                               ; preds = %7
  %18 = tail call ptr @lean_big_int64_to_int(i64 noundef range(i64 -4611686016279904256, 4611686018427387905) %10) #6
  br label %lean_int_neg.exit

19:                                               ; preds = %lean_int_lt.exit
  %20 = tail call ptr @lean_int_big_neg(ptr noundef %0) #6
  br label %lean_int_neg.exit

lean_int_neg.exit:                                ; preds = %13, %17, %19
  %.0.i6 = phi ptr [ %20, %19 ], [ %16, %13 ], [ %18, %17 ]
  %21 = ptrtoint ptr %.0.i6 to i64
  %22 = and i64 %21, 1
  %.not.i7 = icmp eq i64 %22, 0
  br i1 %.not.i7, label %lean_int_to_nat.exit.sink.split, label %lean_int_to_nat.exit

23:                                               ; preds = %lean_int_lt.exit
  %.val.i = load i32, ptr %0, align 4, !tbaa !6
  %24 = icmp sgt i32 %.val.i, 0
  br i1 %24, label %25, label %27, !prof !5

25:                                               ; preds = %23
  %26 = add nuw i32 %.val.i, 1
  store i32 %26, ptr %0, align 4, !tbaa !6
  br label %lean_int_to_nat.exit.sink.split

27:                                               ; preds = %23
  %.not.i9 = icmp eq i32 %.val.i, 0
  br i1 %.not.i9, label %lean_int_to_nat.exit.sink.split, label %28

28:                                               ; preds = %27
  tail call void @lean_inc_ref_cold(ptr noundef nonnull %0) #6
  br label %lean_int_to_nat.exit.sink.split

lean_int_to_nat.exit.sink.split:                  ; preds = %25, %27, %28, %lean_int_neg.exit
  %.sink = phi ptr [ %.0.i6, %lean_int_neg.exit ], [ %0, %28 ], [ %0, %27 ], [ %0, %25 ]
  %29 = tail call ptr @lean_big_int_to_nat(ptr noundef %.sink) #6
  br label %lean_int_to_nat.exit

lean_int_to_nat.exit:                             ; preds = %lean_int_to_nat.exit.sink.split, %4, %lean_int_neg.exit
  %.0 = phi ptr [ %.0.i6, %lean_int_neg.exit ], [ %0, %4 ], [ %29, %lean_int_to_nat.exit.sink.split ]
  ret ptr %.0
}